; Function Attrs: nofree nounwind uwtable
define internal fastcc double @lua_tonumber(ptr noundef captures(none) %0, i32 noundef %1) unnamed_addr #24 {
  %3 = alloca ptr, align 8
  %4 = icmp sgt i32 %1, 0
  br i1 %4, label %5, label %13

5:                                                ; preds = %2
  %6 = getelementptr inbounds nuw i8, ptr %0, i64 24
  %7 = load ptr, ptr %6, align 8, !tbaa !86
  %8 = zext nneg i32 %1 to i64
  %9 = getelementptr %struct.lua_TValue, ptr %7, i64 %8
  %10 = getelementptr i8, ptr %9, i64 -16
  %11 = getelementptr inbounds nuw i8, ptr %0, i64 16
  %12 = load ptr, ptr %11, align 8, !tbaa !62
  %.not28.i = icmp ult ptr %10, %12
  %.luaO_nilobject_.i = select i1 %.not28.i, ptr %10, ptr @luaO_nilobject_
  br label %index2adr.exit

13:                                               ; preds = %2
  %14 = icmp sgt i32 %1, -10000
  br i1 %14, label %15, label %20

15:                                               ; preds = %13
  %16 = getelementptr inbounds nuw i8, ptr %0, i64 16
  %17 = load ptr, ptr %16, align 8, !tbaa !62
  %18 = sext i32 %1 to i64
  %19 = getelementptr inbounds %struct.lua_TValue, ptr %17, i64 %18
  br label %index2adr.exit

20:                                               ; preds = %13
  switch i32 %1, label %37 [
    i32 -10000, label %21
    i32 -10001, label %25
    i32 -10002, label %35
  ]

21:                                               ; preds = %20
  %22 = getelementptr inbounds nuw i8, ptr %0, i64 32
  %23 = load ptr, ptr %22, align 8, !tbaa !29
  %24 = getelementptr inbounds nuw i8, ptr %23, i64 160
  br label %index2adr.exit

25:                                               ; preds = %20
  %26 = getelementptr inbounds nuw i8, ptr %0, i64 40
  %27 = load ptr, ptr %26, align 8, !tbaa !83
  %28 = getelementptr inbounds nuw i8, ptr %27, i64 8
  %29 = load ptr, ptr %28, align 8, !tbaa !93
  %30 = load ptr, ptr %29, align 8, !tbaa !46
  %31 = getelementptr inbounds nuw i8, ptr %0, i64 136
  %32 = getelementptr inbounds nuw i8, ptr %30, i64 24
  %33 = load ptr, ptr %32, align 8, !tbaa !46
  store ptr %33, ptr %31, align 8, !tbaa !46
  %34 = getelementptr inbounds nuw i8, ptr %0, i64 144
  store i32 5, ptr %34, align 8, !tbaa !69
  br label %index2adr.exit

35:                                               ; preds = %20
  %36 = getelementptr inbounds nuw i8, ptr %0, i64 120
  br label %index2adr.exit

37:                                               ; preds = %20
  %38 = getelementptr inbounds nuw i8, ptr %0, i64 40
  %39 = load ptr, ptr %38, align 8, !tbaa !83
  %40 = getelementptr inbounds nuw i8, ptr %39, i64 8
  %41 = load ptr, ptr %40, align 8, !tbaa !93
  %42 = load ptr, ptr %41, align 8, !tbaa !46
  %43 = sub nuw nsw i32 -10002, %1
  %44 = getelementptr inbounds nuw i8, ptr %42, i64 11
  %45 = load i8, ptr %44, align 1, !tbaa !46
  %46 = zext i8 %45 to i32
  %.not.i = icmp samesign ugt i32 %43, %46
  %47 = getelementptr inbounds nuw i8, ptr %42, i64 40
  %48 = sub nuw nsw i32 -10003, %1
  %49 = zext nneg i32 %48 to i64
  %50 = getelementptr inbounds nuw [1 x %struct.lua_TValue], ptr %47, i64 0, i64 %49
  %51 = select i1 %.not.i, ptr @luaO_nilobject_, ptr %50
  br label %index2adr.exit

index2adr.exit:                                   ; preds = %5, %15, %21, %25, %35, %37
  %.1.i = phi ptr [ %.luaO_nilobject_.i, %5 ], [ %19, %15 ], [ %51, %37 ], [ %36, %35 ], [ %31, %25 ], [ %24, %21 ]
  %52 = getelementptr inbounds nuw i8, ptr %.1.i, i64 8
  %53 = load i32, ptr %52, align 8, !tbaa !69
  switch i32 %53, label %luaV_tonumber.exit [
    i32 3, label %index2adr.exit.luaV_tonumber.exit.thread_crit_edge
    i32 4, label %54
  ]

index2adr.exit.luaV_tonumber.exit.thread_crit_edge: ; preds = %index2adr.exit
  %.pre = load double, ptr %.1.i, align 8, !tbaa !46
  br label %luaV_tonumber.exit

54:                                               ; preds = %index2adr.exit
  %55 = load ptr, ptr %.1.i, align 8, !tbaa !46
  %56 = getelementptr inbounds nuw i8, ptr %55, i64 24
  call void @llvm.lifetime.start.p0(i64 8, ptr nonnull %3) #35
  %57 = call double @strtod(ptr noundef nonnull %56, ptr noundef nonnull %3) #35
  %58 = load ptr, ptr %3, align 8, !tbaa !70
  %59 = icmp eq ptr %58, %56
  br i1 %59, label %luaO_str2d.exit.thread.i, label %60

luaO_str2d.exit.thread.i:                         ; preds = %54
  call void @llvm.lifetime.end.p0(i64 8, ptr nonnull %3) #35
  br label %luaV_tonumber.exit

60:                                               ; preds = %54
  %61 = load i8, ptr %58, align 1, !tbaa !46
  switch i8 %61, label %65 [
    i8 120, label %62
    i8 88, label %62
  ]

62:                                               ; preds = %60, %60
  %63 = call i64 @strtoul(ptr noundef nonnull %56, ptr noundef nonnull %3, i32 noundef 16) #35
  %64 = uitofp i64 %63 to double
  %.pre.i.i = load ptr, ptr %3, align 8, !tbaa !70
  %.pre11.i.i = load i8, ptr %.pre.i.i, align 1, !tbaa !46
  br label %65

65:                                               ; preds = %62, %60
  %.010.i = phi double [ %57, %60 ], [ %64, %62 ]
  %66 = phi i8 [ %61, %60 ], [ %.pre11.i.i, %62 ]
  %.promoted.i.i = phi ptr [ %58, %60 ], [ %.pre.i.i, %62 ]
  %67 = icmp eq i8 %66, 0
  br i1 %67, label %luaO_str2d.exit.thread14.i, label %.preheader.i.i

luaO_str2d.exit.thread14.i:                       ; preds = %65
  call void @llvm.lifetime.end.p0(i64 8, ptr nonnull %3) #35
  br label %luaV_tonumber.exit

.preheader.i.i:                                   ; preds = %65
  %68 = tail call ptr @__ctype_b_loc() #42
  %69 = load ptr, ptr %68, align 8, !tbaa !176
  br label %70

70:                                               ; preds = %70, %.preheader.i.i
  %71 = phi ptr [ %.promoted.i.i, %.preheader.i.i ], [ %77, %70 ]
  %72 = load i8, ptr %71, align 1, !tbaa !46
  %73 = zext i8 %72 to i64
  %74 = getelementptr inbounds nuw i16, ptr %69, i64 %73
  %75 = load i16, ptr %74, align 2, !tbaa !178
  %76 = and i16 %75, 8192
  %.not.i.i = icmp eq i16 %76, 0
  %77 = getelementptr inbounds nuw i8, ptr %71, i64 1
  br i1 %.not.i.i, label %luaO_str2d.exit.i, label %70, !llvm.loop !179

luaO_str2d.exit.i:                                ; preds = %70
  %.not8.i.not.i = icmp eq i8 %72, 0
  call void @llvm.lifetime.end.p0(i64 8, ptr nonnull %3) #35
  br i1 %.not8.i.not.i, label %luaV_tonumber.exit.thread, label %luaV_tonumber.exit

luaV_tonumber.exit.thread:                        ; preds = %luaO_str2d.exit.i
  br label %luaV_tonumber.exit

luaV_tonumber.exit:                               ; preds = %index2adr.exit.luaV_tonumber.exit.thread_crit_edge, %luaO_str2d.exit.thread14.i, %index2adr.exit, %luaO_str2d.exit.i, %luaO_str2d.exit.thread.i, %luaV_tonumber.exit.thread
  %.05 = phi double [ 0.000000e+00, %luaO_str2d.exit.thread.i ], [ 0.000000e+00, %luaO_str2d.exit.i ], [ 0.000000e+00, %index2adr.exit ], [ %.pre, %index2adr.exit.luaV_tonumber.exit.thread_crit_edge ], [ %.010.i, %luaO_str2d.exit.thread14.i ], [ %.010.i, %luaV_tonumber.exit.thread ]
  ret double %.05
}